; Function Attrs: mustprogress uwtable
define noundef zeroext i1 @_ZN5Ipopt21CGPerturbationHandler14InitializeImplERKNS_11OptionsListERKNSt7__cxx1112basic_stringIcSt11char_traitsIcESaIcEEE(ptr noundef nonnull align 8 dereferenceable(240) %0, ptr noundef nonnull align 8 dereferenceable(112) %1, ptr noundef nonnull align 8 dereferenceable(32) %2) unnamed_addr #3 align 2 personality ptr @__gxx_personality_v0 {
  %4 = alloca %"class.std::__cxx11::basic_string", align 8
  %5 = alloca %"class.std::allocator.5", align 1
  %6 = alloca %"class.std::__cxx11::basic_string", align 8
  %7 = alloca %"class.std::allocator.5", align 1
  call void @_ZNSaIcEC1Ev(ptr noundef nonnull align 1 dereferenceable(1) %5) #11
  %8 = invoke noundef ptr @_ZNSt7__cxx1112basic_stringIcSt11char_traitsIcESaIcEE13_M_local_dataEv(ptr noundef nonnull align 8 dereferenceable(32) %4)
          to label %.noexc unwind label %27

.noexc:                                           ; preds = %3
  invoke void @_ZNSt7__cxx1112basic_stringIcSt11char_traitsIcESaIcEE12_Alloc_hiderC1EPcRKS3_(ptr noundef nonnull align 8 dereferenceable(8) %4, ptr noundef %8, ptr noundef nonnull align 1 dereferenceable(1) %5)
          to label %.noexc15 unwind label %27

.noexc15:                                         ; preds = %.noexc
  invoke void @_ZNSt7__cxx1112basic_stringIcSt11char_traitsIcESaIcEE12_M_constructIPKcEEvT_S8_St20forward_iterator_tag(ptr noundef nonnull align 8 dereferenceable(32) %4, ptr noundef nonnull @.str, ptr noundef nonnull getelementptr inbounds ([12 x i8], ptr @.str, i64 0, i64 11))
          to label %_ZNSt7__cxx1112basic_stringIcSt11char_traitsIcESaIcEEC2IS3_EEPKcRKS3_.exit unwind label %9

9:                                                ; preds = %.noexc15
  %10 = landingpad { ptr, i32 }
          cleanup
  call void @_ZNSaIcED2Ev(ptr noundef nonnull align 1 dereferenceable(1) %4) #11
  br label %.body

_ZNSt7__cxx1112basic_stringIcSt11char_traitsIcESaIcEEC2IS3_EEPKcRKS3_.exit: ; preds = %.noexc15
  %11 = getelementptr inbounds i8, ptr %0, i64 224
  %12 = load ptr, ptr %1, align 8
  %13 = getelementptr inbounds i8, ptr %12, i64 144
  %14 = load ptr, ptr %13, align 8
  %15 = invoke noundef zeroext i1 %14(ptr noundef nonnull align 8 dereferenceable(112) %1, ptr noundef nonnull align 8 dereferenceable(32) %4, ptr noundef nonnull align 8 dereferenceable(8) %11, ptr noundef nonnull align 8 dereferenceable(32) %2)
          to label %16 unwind label %29

16:                                               ; preds = %_ZNSt7__cxx1112basic_stringIcSt11char_traitsIcESaIcEEC2IS3_EEPKcRKS3_.exit
  call void @_ZNSt7__cxx1112basic_stringIcSt11char_traitsIcESaIcEED1Ev(ptr noundef nonnull align 8 dereferenceable(32) %4) #11
  call void @_ZNSaIcED1Ev(ptr noundef nonnull align 1 dereferenceable(1) %5) #11
  call void @_ZNSaIcEC1Ev(ptr noundef nonnull align 1 dereferenceable(1) %7) #11
  %17 = invoke noundef ptr @_ZNSt7__cxx1112basic_stringIcSt11char_traitsIcESaIcEE13_M_local_dataEv(ptr noundef nonnull align 8 dereferenceable(32) %6)
          to label %.noexc16 unwind label %31

.noexc16:                                         ; preds = %16
  invoke void @_ZNSt7__cxx1112basic_stringIcSt11char_traitsIcESaIcEE12_Alloc_hiderC1EPcRKS3_(ptr noundef nonnull align 8 dereferenceable(8) %6, ptr noundef %17, ptr noundef nonnull align 1 dereferenceable(1) %7)
          to label %.noexc17 unwind label %31

.noexc17:                                         ; preds = %.noexc16
  invoke void @_ZNSt7__cxx1112basic_stringIcSt11char_traitsIcESaIcEE12_M_constructIPKcEEvT_S8_St20forward_iterator_tag(ptr noundef nonnull align 8 dereferenceable(32) %6, ptr noundef nonnull @.str.1, ptr noundef nonnull getelementptr inbounds ([28 x i8], ptr @.str.1, i64 0, i64 27))
          to label %_ZNSt7__cxx1112basic_stringIcSt11char_traitsIcESaIcEEC2IS3_EEPKcRKS3_.exit20 unwind label %18

18:                                               ; preds = %.noexc17
  %19 = landingpad { ptr, i32 }
          cleanup
  call void @_ZNSaIcED2Ev(ptr noundef nonnull align 1 dereferenceable(1) %6) #11
  br label %.body

_ZNSt7__cxx1112basic_stringIcSt11char_traitsIcESaIcEEC2IS3_EEPKcRKS3_.exit20: ; preds = %.noexc17
  %20 = getelementptr inbounds i8, ptr %0, i64 232
  %21 = load ptr, ptr %1, align 8
  %22 = getelementptr inbounds i8, ptr %21, i64 144
  %23 = load ptr, ptr %22, align 8
  %24 = invoke noundef zeroext i1 %23(ptr noundef nonnull align 8 dereferenceable(112) %1, ptr noundef nonnull align 8 dereferenceable(32) %6, ptr noundef nonnull align 8 dereferenceable(8) %20, ptr noundef nonnull align 8 dereferenceable(32) %2)
          to label %25 unwind label %33

25:                                               ; preds = %_ZNSt7__cxx1112basic_stringIcSt11char_traitsIcESaIcEEC2IS3_EEPKcRKS3_.exit20
  call void @_ZNSt7__cxx1112basic_stringIcSt11char_traitsIcESaIcEED1Ev(ptr noundef nonnull align 8 dereferenceable(32) %6) #11
  call void @_ZNSaIcED1Ev(ptr noundef nonnull align 1 dereferenceable(1) %7) #11
  %26 = call noundef zeroext i1 @_ZN5Ipopt21PDPerturbationHandler14InitializeImplERKNS_11OptionsListERKNSt7__cxx1112basic_stringIcSt11char_traitsIcESaIcEEE(ptr noundef nonnull align 8 dereferenceable(217) %0, ptr noundef nonnull align 8 dereferenceable(112) %1, ptr noundef nonnull align 8 dereferenceable(32) %2)
  ret i1 %26

27:                                               ; preds = %.noexc, %3
  %28 = landingpad { ptr, i32 }
          cleanup
  br label %.body

29:                                               ; preds = %_ZNSt7__cxx1112basic_stringIcSt11char_traitsIcESaIcEEC2IS3_EEPKcRKS3_.exit
  %30 = landingpad { ptr, i32 }
          cleanup
  call void @_ZNSt7__cxx1112basic_stringIcSt11char_traitsIcESaIcEED1Ev(ptr noundef nonnull align 8 dereferenceable(32) %4) #11
  br label %.body

31:                                               ; preds = %.noexc16, %16
  %32 = landingpad { ptr, i32 }
          cleanup
  br label %.body

33:                                               ; preds = %_ZNSt7__cxx1112basic_stringIcSt11char_traitsIcESaIcEEC2IS3_EEPKcRKS3_.exit20
  %34 = landingpad { ptr, i32 }
          cleanup
  call void @_ZNSt7__cxx1112basic_stringIcSt11char_traitsIcESaIcEED1Ev(ptr noundef nonnull align 8 dereferenceable(32) %6) #11
  br label %.body

.body:                                            ; preds = %33, %18, %31, %29, %9, %27
  %.sink = phi ptr [ %5, %27 ], [ %5, %9 ], [ %5, %29 ], [ %7, %31 ], [ %7, %18 ], [ %7, %33 ]
  %.pn12.pn = phi { ptr, i32 } [ %28, %27 ], [ %10, %9 ], [ %30, %29 ], [ %32, %31 ], [ %19, %18 ], [ %34, %33 ]
  call void @_ZNSaIcED1Ev(ptr noundef nonnull align 1 dereferenceable(1) %.sink) #11
  resume { ptr, i32 } %.pn12.pn
}